; Function Attrs: nounwind uwtable
define void @evconnlistener_free(ptr noundef initializes((16, 32)) %0) local_unnamed_addr #0 {
  %2 = getelementptr inbounds nuw i8, ptr %0, i64 8
  %3 = load ptr, ptr %2, align 8
  %.not = icmp eq ptr %3, null
  br i1 %.not, label %7, label %4

4:                                                ; preds = %1
  %5 = load ptr, ptr getelementptr inbounds nuw (i8, ptr @evthread_lock_fns_, i64 24), align 8
  %6 = tail call i32 %5(i32 noundef 0, ptr noundef nonnull %3) #6
  br label %7

7:                                                ; preds = %1, %4
  %8 = getelementptr inbounds nuw i8, ptr %0, i64 16
  tail call void @llvm.memset.p0.i64(ptr noundef nonnull align 8 dereferenceable(16) %8, i8 0, i64 16, i1 false)
  %9 = load ptr, ptr %0, align 8
  %10 = getelementptr inbounds nuw i8, ptr %9, i64 24
  %11 = load ptr, ptr %10, align 8
  %.not9 = icmp eq ptr %11, null
  br i1 %.not9, label %13, label %12

12:                                               ; preds = %7
  tail call void %11(ptr noundef nonnull %0) #6
  br label %13

13:                                               ; preds = %12, %7
  %14 = getelementptr inbounds nuw i8, ptr %0, i64 44
  %15 = load i16, ptr %14, align 4
  %16 = add i16 %15, -1
  store i16 %16, ptr %14, align 4
  %17 = icmp eq i16 %16, 0
  br i1 %17, label %18, label %30

18:                                               ; preds = %13
  %19 = load ptr, ptr %0, align 8
  %20 = getelementptr inbounds nuw i8, ptr %19, i64 16
  %21 = load ptr, ptr %20, align 8
  tail call void %21(ptr noundef nonnull %0) #6
  %22 = load ptr, ptr %2, align 8
  %.not17.i = icmp eq ptr %22, null
  br i1 %.not17.i, label %.thread.i, label %23

23:                                               ; preds = %18
  %24 = load ptr, ptr getelementptr inbounds nuw (i8, ptr @evthread_lock_fns_, i64 32), align 8
  %25 = tail call i32 %24(i32 noundef 0, ptr noundef nonnull %22) #6
  %.pre.i = load ptr, ptr %2, align 8
  %26 = icmp ne ptr %.pre.i, null
  %27 = load ptr, ptr getelementptr inbounds nuw (i8, ptr @evthread_lock_fns_, i64 16), align 8
  %28 = icmp ne ptr %27, null
  %or.cond.i = select i1 %26, i1 %28, i1 false
  br i1 %or.cond.i, label %29, label %.thread.i

29:                                               ; preds = %23
  tail call void %27(ptr noundef nonnull %.pre.i, i32 noundef 1) #6
  br label %.thread.i

.thread.i:                                        ; preds = %29, %23, %18
  tail call void @event_mm_free_(ptr noundef nonnull %0) #6
  br label %listener_decref_and_unlock.exit

30:                                               ; preds = %13
  %31 = load ptr, ptr %2, align 8
  %.not.i = icmp eq ptr %31, null
  br i1 %.not.i, label %listener_decref_and_unlock.exit, label %32

32:                                               ; preds = %30
  %33 = load ptr, ptr getelementptr inbounds nuw (i8, ptr @evthread_lock_fns_, i64 32), align 8
  %34 = tail call i32 %33(i32 noundef 0, ptr noundef nonnull %31) #6
  br label %listener_decref_and_unlock.exit

listener_decref_and_unlock.exit:                  ; preds = %.thread.i, %30, %32
  ret void
}